target datalayout = "e-m:e-p270:32:32-p271:32:32-p272:64:64-i64:64-i128:128-f80:128-n8:16:32:64-S128"
target triple = "x86_64-pc-linux-gnu"

%struct._lv_matrix_t = type { [3 x [3 x float]] }
%struct._lv_array_t = type { ptr, i32, i32, i32, i8 }
%struct.lv_area_t = type { i32, i32, i32, i32 }
%struct.lv_color32_t = type { i8, i8, i8, i8 }
%struct.lv_color_t = type { i8, i8, i8 }
%struct._lv_vector_dsc_t = type { ptr, %struct._lv_vector_draw_dsc_t, %struct._lv_draw_vector_task_dsc_t }
%struct._lv_vector_draw_dsc_t = type { %struct._lv_vector_fill_dsc_t, %struct._lv_vector_stroke_dsc_t, %struct._lv_matrix_t, i32, %struct.lv_area_t }
%struct._lv_vector_fill_dsc_t = type { i32, %struct.lv_color32_t, i8, i32, %struct._lv_draw_image_dsc_t, %struct._lv_vector_gradient_t, %struct._lv_matrix_t }
%struct._lv_draw_image_dsc_t = type { %struct.lv_draw_dsc_base_t, ptr, %struct.lv_image_header_t, i32, i32, i32, i32, i32, %struct.lv_point_t, %struct.lv_color_t, i8, i8, i8, ptr, %struct.lv_area_t, i32, ptr }
%struct.lv_draw_dsc_base_t = type { ptr, i32, i32, i32, ptr, i64, ptr }
%struct.lv_image_header_t = type <{ i64, i32 }>
%struct.lv_point_t = type { i32, i32 }
%struct._lv_vector_gradient_t = type { i32, [2 x %struct.lv_gradient_stop_t], i16, float, float, float, float, float, float, float, i32 }
%struct.lv_gradient_stop_t = type { %struct.lv_color_t, i8, i8 }
%struct._lv_vector_stroke_dsc_t = type { i32, %struct.lv_color32_t, i8, float, %struct._lv_array_t, i32, i32, i16, %struct._lv_vector_gradient_t, %struct._lv_matrix_t }
%struct._lv_draw_vector_task_dsc_t = type { %struct.lv_draw_dsc_base_t, ptr }

; Function Attrs: nounwind uwtable
define void @lv_vector_dsc_set_stroke_dash(ptr noundef %0, ptr noundef %1, i16 noundef zeroext %2) #0 {
  %4 = alloca ptr, align 8
  %5 = alloca ptr, align 8
  %6 = alloca i16, align 2
  %7 = alloca ptr, align 8
  %8 = alloca i16, align 2
  store ptr %0, ptr %4, align 8, !tbaa !3
  store ptr %1, ptr %5, align 8, !tbaa !3
  store i16 %2, ptr %6, align 2, !tbaa !80
  call void @llvm.lifetime.start.p0(i64 8, ptr %7) #7
  %9 = load ptr, ptr %4, align 8, !tbaa !3
  %10 = getelementptr inbounds nuw %struct._lv_vector_dsc_t, ptr %9, i32 0, i32 1
  %11 = getelementptr inbounds nuw %struct._lv_vector_draw_dsc_t, ptr %10, i32 0, i32 1
  %12 = getelementptr inbounds nuw %struct._lv_vector_stroke_dsc_t, ptr %11, i32 0, i32 4
  store ptr %12, ptr %7, align 8, !tbaa !3
  %13 = load ptr, ptr %5, align 8, !tbaa !3
  %14 = icmp ne ptr %13, null
  br i1 %14, label %15, label %48

15:                                               ; preds = %3
  %16 = load ptr, ptr %7, align 8, !tbaa !3
  call void @lv_array_clear(ptr noundef %16)
  %17 = load ptr, ptr %7, align 8, !tbaa !3
  %18 = call i32 @lv_array_capacity(ptr noundef %17)
  %19 = icmp eq i32 %18, 0
  br i1 %19, label %20, label %24

20:                                               ; preds = %15
  %21 = load ptr, ptr %7, align 8, !tbaa !3
  %22 = load i16, ptr %6, align 2, !tbaa !80
  %23 = zext i16 %22 to i32
  call void @lv_array_init(ptr noundef %21, i32 noundef %23, i32 noundef 4)
  br label %29

24:                                               ; preds = %15
  %25 = load ptr, ptr %7, align 8, !tbaa !3
  %26 = load i16, ptr %6, align 2, !tbaa !80
  %27 = zext i16 %26 to i32
  %28 = call zeroext i1 @lv_array_resize(ptr noundef %25, i32 noundef %27)
  br label %29

29:                                               ; preds = %24, %20
  call void @llvm.lifetime.start.p0(i64 2, ptr %8) #7
  store i16 0, ptr %8, align 2, !tbaa !80
  br label %30

30:                                               ; preds = %44, %29
  %31 = load i16, ptr %8, align 2, !tbaa !80
  %32 = zext i16 %31 to i32
  %33 = load i16, ptr %6, align 2, !tbaa !80
  %34 = zext i16 %33 to i32
  %35 = icmp slt i32 %32, %34
  br i1 %35, label %37, label %36

36:                                               ; preds = %30
  call void @llvm.lifetime.end.p0(i64 2, ptr %8) #7
  br label %47

37:                                               ; preds = %30
  %38 = load ptr, ptr %7, align 8, !tbaa !3
  %39 = load ptr, ptr %5, align 8, !tbaa !3
  %40 = load i16, ptr %8, align 2, !tbaa !80
  %41 = zext i16 %40 to i64
  %42 = getelementptr inbounds nuw float, ptr %39, i64 %41
  %43 = call i32 @lv_array_push_back(ptr noundef %38, ptr noundef %42)
  br label %44

44:                                               ; preds = %37
  %45 = load i16, ptr %8, align 2, !tbaa !80
  %46 = add i16 %45, 1
  store i16 %46, ptr %8, align 2, !tbaa !80
  br label %30, !llvm.loop !85

47:                                               ; preds = %36
  br label %50

48:                                               ; preds = %3
  %49 = load ptr, ptr %7, align 8, !tbaa !3
  call void @lv_array_clear(ptr noundef %49)
  br label %50

50:                                               ; preds = %48, %47
  call void @llvm.lifetime.end.p0(i64 8, ptr %7) #7
  ret void
}