; Function Attrs: nounwind uwtable
define void @lv_vector_dsc_set_stroke_dash(ptr noundef %0, ptr noundef %1, i16 noundef zeroext %2) local_unnamed_addr #3 {
  %4 = getelementptr inbounds nuw i8, ptr %0, i64 272
  %.not = icmp eq ptr %1, null
  tail call void @lv_array_clear(ptr noundef nonnull %4) #9
  br i1 %.not, label %.loopexit, label %5

5:                                                ; preds = %3
  %6 = tail call i32 @lv_array_capacity(ptr noundef nonnull %4) #9
  %7 = icmp eq i32 %6, 0
  %8 = zext i16 %2 to i32
  br i1 %7, label %9, label %10

9:                                                ; preds = %5
  tail call void @lv_array_init(ptr noundef nonnull %4, i32 noundef %8, i32 noundef 4) #9
  br label %12

10:                                               ; preds = %5
  %11 = tail call zeroext i1 @lv_array_resize(ptr noundef nonnull %4, i32 noundef %8) #9
  br label %12

12:                                               ; preds = %10, %9
  %.not16 = icmp eq i16 %2, 0
  br i1 %.not16, label %.loopexit, label %.lr.ph.preheader

.lr.ph.preheader:                                 ; preds = %12
  %wide.trip.count = zext i16 %2 to i64
  br label %.lr.ph

.lr.ph:                                           ; preds = %.lr.ph.preheader, %.lr.ph
  %indvars.iv = phi i64 [ 0, %.lr.ph.preheader ], [ %indvars.iv.next, %.lr.ph ]
  %13 = getelementptr inbounds nuw float, ptr %1, i64 %indvars.iv
  %14 = tail call i32 @lv_array_push_back(ptr noundef nonnull %4, ptr noundef nonnull %13) #9
  %indvars.iv.next = add nuw nsw i64 %indvars.iv, 1
  %exitcond.not = icmp eq i64 %indvars.iv.next, %wide.trip.count
  br i1 %exitcond.not, label %.loopexit, label %.lr.ph, !llvm.loop !77

.loopexit:                                        ; preds = %.lr.ph, %3, %12
  ret void
}